target datalayout = "e-m:e-p270:32:32-p271:32:32-p272:64:64-i64:64-i128:128-f80:128-n8:16:32:64-S128"
target triple = "x86_64-pc-linux-gnu"

%class.Node = type <{ ptr, ptr, ptr, i32, i32, i32, i32, i32, i32, i32, [4 x i8] }>
%class.Node.base = type <{ ptr, ptr, ptr, i32, i32, i32, i32, i32, i32, i32 }>
%class.TypeNode = type { %class.Node.base, ptr }
%class.Type = type <{ ptr, ptr, i32, [4 x i8] }>

; Function Attrs: mustprogress nounwind uwtable
define linkonce_odr hidden noundef zeroext i1 @_ZNK4Node6is_ConEv(ptr noundef nonnull align 8 dereferenceable(52) %0) #1 comdat align 2 {
  %2 = alloca ptr, align 8
  store ptr %0, ptr %2, align 8
  %3 = load ptr, ptr %2, align 8
  %4 = getelementptr inbounds %class.Node, ptr %3, i32 0, i32 9
  %5 = load i32, ptr %4, align 8
  %6 = and i32 %5, 16
  %7 = icmp ne i32 %6, 0
  ret i1 %7
}

; Function Attrs: mustprogress nounwind uwtable
define linkonce_odr hidden noundef ptr @_ZNK4Type7isa_intEv(ptr noundef nonnull align 8 dereferenceable(20) %0) #1 comdat align 2 {
  %2 = alloca ptr, align 8
  store ptr %0, ptr %2, align 8
  %3 = load ptr, ptr %2, align 8
  %4 = getelementptr inbounds %class.Type, ptr %3, i32 0, i32 2
  %5 = load i32, ptr %4, align 8
  %6 = icmp eq i32 %5, 3
  br i1 %6, label %7, label %8

7:                                                ; preds = %1
  br label %9

8:                                                ; preds = %1
  br label %9

9:                                                ; preds = %8, %7
  %10 = phi ptr [ %3, %7 ], [ null, %8 ]
  ret ptr %10
}

; Function Attrs: mustprogress nounwind uwtable
define linkonce_odr hidden noundef ptr @_ZNK8TypeNode4typeEv(ptr noundef nonnull align 8 dereferenceable(64) %0) #1 comdat align 2 {
  %2 = alloca ptr, align 8
  store ptr %0, ptr %2, align 8
  %3 = load ptr, ptr %2, align 8
  %4 = getelementptr inbounds %class.TypeNode, ptr %3, i32 0, i32 1
  %5 = load ptr, ptr %4, align 8
  ret ptr %5
}

; Function Attrs: mustprogress nounwind uwtable
define linkonce_odr hidden noundef ptr @_ZNK4Node7as_TypeEv(ptr noundef nonnull align 8 dereferenceable(52) %0) #1 comdat align 2 {
  %2 = alloca ptr, align 8
  store ptr %0, ptr %2, align 8
  %3 = load ptr, ptr %2, align 8
  ret ptr %3
}

; Function Attrs: mustprogress nounwind uwtable
define linkonce_odr hidden noundef zeroext i1 @_ZNK4Node7is_TypeEv(ptr noundef nonnull align 8 dereferenceable(52) %0) #1 comdat align 2 {
  %2 = alloca ptr, align 8
  store ptr %0, ptr %2, align 8
  %3 = load ptr, ptr %2, align 8
  %4 = getelementptr inbounds %class.Node, ptr %3, i32 0, i32 8
  %5 = load i32, ptr %4, align 4
  %6 = and i32 %5, 7
  %7 = icmp eq i32 %6, 4
  ret i1 %7
}

; Function Attrs: mustprogress nounwind uwtable
define hidden noundef ptr @_ZNK4Node13find_int_typeEv(ptr noundef nonnull align 8 dereferenceable(52) %0) #1 align 2 {
  %2 = alloca ptr, align 8
  %3 = alloca ptr, align 8
  store ptr %0, ptr %3, align 8
  %4 = load ptr, ptr %3, align 8
  %5 = call noundef zeroext i1 @_ZNK4Node7is_TypeEv(ptr noundef nonnull align 8 dereferenceable(52) %4)
  br i1 %5, label %6, label %10

6:                                                ; preds = %1
  %7 = call noundef ptr @_ZNK4Node7as_TypeEv(ptr noundef nonnull align 8 dereferenceable(52) %4)
  %8 = call noundef ptr @_ZNK8TypeNode4typeEv(ptr noundef nonnull align 8 dereferenceable(64) %7)
  %9 = call noundef ptr @_ZNK4Type7isa_intEv(ptr noundef nonnull align 8 dereferenceable(20) %8)
  store ptr %9, ptr %2, align 8
  br label %20

10:                                               ; preds = %1
  %11 = call noundef zeroext i1 @_ZNK4Node6is_ConEv(ptr noundef nonnull align 8 dereferenceable(52) %4)
  br i1 %11, label %12, label %18

12:                                               ; preds = %10
  %13 = load ptr, ptr %4, align 8
  %14 = getelementptr inbounds ptr, ptr %13, i64 5
  %15 = load ptr, ptr %14, align 8
  %16 = call noundef ptr %15(ptr noundef nonnull align 8 dereferenceable(52) %4)
  %17 = call noundef ptr @_ZNK4Type7isa_intEv(ptr noundef nonnull align 8 dereferenceable(20) %16)
  store ptr %17, ptr %2, align 8
  br label %20

18:                                               ; preds = %10
  br label %19

19:                                               ; preds = %18
  store ptr null, ptr %2, align 8
  br label %20

20:                                               ; preds = %19, %12, %6
  %21 = load ptr, ptr %2, align 8
  ret ptr %21
}