; Function Attrs: mustprogress nounwind uwtable
define hidden noundef ptr @_ZNK4Node13find_int_typeEv(ptr noundef nonnull align 8 dereferenceable(52) %0) local_unnamed_addr #0 align 2 {
  %2 = getelementptr inbounds i8, ptr %0, i64 44
  %3 = load i32, ptr %2, align 4
  %4 = and i32 %3, 7
  %5 = icmp eq i32 %4, 4
  br i1 %5, label %6, label %9

6:                                                ; preds = %1
  %7 = getelementptr inbounds i8, ptr %0, i64 56
  %8 = load ptr, ptr %7, align 8
  br label %.sink.split

9:                                                ; preds = %1
  %10 = getelementptr inbounds i8, ptr %0, i64 48
  %11 = load i32, ptr %10, align 8
  %12 = and i32 %11, 16
  %.not = icmp eq i32 %12, 0
  br i1 %.not, label %21, label %13

13:                                               ; preds = %9
  %14 = load ptr, ptr %0, align 8
  %15 = getelementptr inbounds i8, ptr %14, i64 40
  %16 = load ptr, ptr %15, align 8
  %17 = tail call noundef ptr %16(ptr noundef nonnull align 8 dereferenceable(52) %0) #15
  br label %.sink.split

.sink.split:                                      ; preds = %6, %13
  %.sink5 = phi ptr [ %17, %13 ], [ %8, %6 ]
  %18 = getelementptr inbounds i8, ptr %.sink5, i64 16
  %19 = load i32, ptr %18, align 8
  %20 = icmp eq i32 %19, 3
  %..i2 = select i1 %20, ptr %.sink5, ptr null
  br label %21

21:                                               ; preds = %.sink.split, %9
  %.0 = phi ptr [ null, %9 ], [ %..i2, %.sink.split ]
  ret ptr %.0
}